; Function Attrs: mustprogress uwtable
define hidden noundef ptr @_ZN6google8protobuf21DynamicMessageFactory12GetPrototypeEPKNS0_10DescriptorE(ptr noundef nonnull align 8 dereferenceable(120) %0, ptr noundef %1) unnamed_addr #3 align 2 personality ptr @__gxx_personality_v0 {
  %3 = getelementptr inbounds nuw i8, ptr %0, i64 80
  %4 = tail call noundef i32 @pthread_mutex_lock(ptr noundef nonnull align 8 dereferenceable(40) %3) #19
  %.not.i.i.i = icmp eq i32 %4, 0
  br i1 %.not.i.i.i, label %_ZN6google8protobuf8internal9MutexLockC2EPNS1_12WrappedMutexE.exit, label %5

5:                                                ; preds = %2
  tail call void @_ZSt20__throw_system_errori(i32 noundef %4) #20
  unreachable

_ZN6google8protobuf8internal9MutexLockC2EPNS1_12WrappedMutexE.exit: ; preds = %2
  %6 = invoke noundef ptr @_ZN6google8protobuf21DynamicMessageFactory18GetPrototypeNoLockEPKNS0_10DescriptorE(ptr noundef nonnull align 8 dereferenceable(120) %0, ptr noundef %1)
          to label %7 unwind label %9

7:                                                ; preds = %_ZN6google8protobuf8internal9MutexLockC2EPNS1_12WrappedMutexE.exit
  %8 = tail call noundef i32 @pthread_mutex_unlock(ptr noundef nonnull align 8 dereferenceable(40) %3) #19
  ret ptr %6

9:                                                ; preds = %_ZN6google8protobuf8internal9MutexLockC2EPNS1_12WrappedMutexE.exit
  %10 = landingpad { ptr, i32 }
          cleanup
  %11 = tail call noundef i32 @pthread_mutex_unlock(ptr noundef nonnull align 8 dereferenceable(40) %3) #19
  resume { ptr, i32 } %10
}